; Function Attrs: mustprogress nofree norecurse nosync nounwind willreturn memory(read, inaccessiblemem: none) uwtable
define hidden noundef nonnull align 8 dereferenceable(40) ptr @_ZNK3nla9new_lemma7currentEv(ptr noundef nonnull readonly align 8 captures(none) dereferenceable(16) %0) local_unnamed_addr #9 align 2 {
  %2 = getelementptr inbounds nuw i8, ptr %0, i64 8
  %3 = load ptr, ptr %2, align 8, !tbaa !388
  %4 = getelementptr inbounds nuw i8, ptr %3, i64 256
  %5 = load ptr, ptr %4, align 8, !tbaa !254
  %6 = icmp eq ptr %5, null
  br i1 %6, label %_ZN6vectorIN3nla5lemmaELb1EjE4backEv.exit, label %7

7:                                                ; preds = %1
  %8 = getelementptr inbounds i8, ptr %5, i64 -4
  %9 = load i32, ptr %8, align 4, !tbaa !249
  %10 = add i32 %9, -1
  %11 = zext i32 %10 to i64
  br label %_ZN6vectorIN3nla5lemmaELb1EjE4backEv.exit

_ZN6vectorIN3nla5lemmaELb1EjE4backEv.exit:        ; preds = %1, %7
  %.0.i.i = phi i64 [ %11, %7 ], [ 4294967295, %1 ]
  %12 = getelementptr inbounds nuw %"class.nla::lemma", ptr %5, i64 %.0.i.i
  ret ptr %12
}